; ModuleID = '15/222.c'
source_filename = "15/222.c"
target datalayout = "e-m:e-p270:32:32-p271:32:32-p272:64:64-i64:64-f80:128-n8:16:32:64-S128"
target triple = "x86_64-pc-linux-gnu"

@.str = private unnamed_addr constant [3 x i8] c"%d\00", align 1

; Function Attrs: noinline nounwind uwtable
define dso_local i32 @main() #0 {
  %1 = alloca i32, align 4
  %2 = alloca i32, align 4
  %3 = alloca i32, align 4
  %4 = alloca i32, align 4
  %5 = alloca i32, align 4
  %6 = alloca i32, align 4
  %7 = alloca i32, align 4
  %8 = alloca i32, align 4
  %9 = alloca i32, align 4
  %10 = alloca i32, align 4
  %11 = alloca [100 x [100 x i32]], align 16
  store i32 0, i32* %1, align 4
  store i32 0, i32* %10, align 4
  %12 = call i32 (i8*, ...) @__isoc99_scanf(i8* getelementptr inbounds ([3 x i8], [3 x i8]* @.str, i64 0, i64 0), i32* %2)
  store i32 0, i32* %3, align 4
  br label %13

13:                                               ; preds = %34, %0
  %14 = load i32, i32* %3, align 4
  %15 = load i32, i32* %2, align 4
  %16 = icmp slt i32 %14, %15
  br i1 %16, label %17, label %37

17:                                               ; preds = %13
  store i32 0, i32* %4, align 4
  br label %18

18:                                               ; preds = %30, %17
  %19 = load i32, i32* %4, align 4
  %20 = load i32, i32* %2, align 4
  %21 = icmp slt i32 %19, %20
  br i1 %21, label %22, label %33

22:                                               ; preds = %18
  %23 = load i32, i32* %3, align 4
  %24 = sext i32 %23 to i64
  %25 = getelementptr inbounds [100 x [100 x i32]], [100 x [100 x i32]]* %11, i64 0, i64 %24
  %26 = load i32, i32* %4, align 4
  %27 = sext i32 %26 to i64
  %28 = getelementptr inbounds [100 x i32], [100 x i32]* %25, i64 0, i64 %27
  %29 = call i32 (i8*, ...) @__isoc99_scanf(i8* getelementptr inbounds ([3 x i8], [3 x i8]* @.str, i64 0, i64 0), i32* %28)
  br label %30

30:                                               ; preds = %22
  %31 = load i32, i32* %4, align 4
  %32 = add nsw i32 %31, 1
  store i32 %32, i32* %4, align 4
  br label %18

33:                                               ; preds = %18
  br label %34

34:                                               ; preds = %33
  %35 = load i32, i32* %3, align 4
  %36 = add nsw i32 %35, 1
  store i32 %36, i32* %3, align 4
  br label %13

37:                                               ; preds = %13
  store i32 0, i32* %3, align 4
  br label %38

38:                                               ; preds = %79, %37
  %39 = load i32, i32* %3, align 4
  %40 = load i32, i32* %2, align 4
  %41 = icmp slt i32 %39, %40
  br i1 %41, label %42, label %82

42:                                               ; preds = %38
  store i32 0, i32* %4, align 4
  br label %43

43:                                               ; preds = %75, %42
  %44 = load i32, i32* %4, align 4
  %45 = load i32, i32* %2, align 4
  %46 = icmp slt i32 %44, %45
  br i1 %46, label %47, label %78

47:                                               ; preds = %43
  %48 = load i32, i32* %3, align 4
  %49 = sext i32 %48 to i64
  %50 = getelementptr inbounds [100 x [100 x i32]], [100 x [100 x i32]]* %11, i64 0, i64 %49
  %51 = load i32, i32* %4, align 4
  %52 = sext i32 %51 to i64
  %53 = getelementptr inbounds [100 x i32], [100 x i32]* %50, i64 0, i64 %52
  %54 = load i32, i32* %53, align 4
  %55 = icmp eq i32 %54, 0
  br i1 %55, label %56, label %62

56:                                               ; preds = %47
  %57 = load i32, i32* %10, align 4
  %58 = icmp eq i32 %57, 0
  br i1 %58, label %59, label %62

59:                                               ; preds = %56
  %60 = load i32, i32* %3, align 4
  store i32 %60, i32* %5, align 4
  %61 = load i32, i32* %4, align 4
  store i32 %61, i32* %6, align 4
  store i32 1, i32* %10, align 4
  br label %62

62:                                               ; preds = %59, %56, %47
  %63 = load i32, i32* %3, align 4
  %64 = sext i32 %63 to i64
  %65 = getelementptr inbounds [100 x [100 x i32]], [100 x [100 x i32]]* %11, i64 0, i64 %64
  %66 = load i32, i32* %4, align 4
  %67 = sext i32 %66 to i64
  %68 = getelementptr inbounds [100 x i32], [100 x i32]* %65, i64 0, i64 %67
  %69 = load i32, i32* %68, align 4
  %70 = icmp eq i32 %69, 0
  br i1 %70, label %71, label %74

71:                                               ; preds = %62
  %72 = load i32, i32* %3, align 4
  store i32 %72, i32* %7, align 4
  %73 = load i32, i32* %4, align 4
  store i32 %73, i32* %8, align 4
  br label %74

74:                                               ; preds = %71, %62
  br label %75

75:                                               ; preds = %74
  %76 = load i32, i32* %4, align 4
  %77 = add nsw i32 %76, 1
  store i32 %77, i32* %4, align 4
  br label %43

78:                                               ; preds = %43
  br label %79

79:                                               ; preds = %78
  %80 = load i32, i32* %3, align 4
  %81 = add nsw i32 %80, 1
  store i32 %81, i32* %3, align 4
  br label %38

82:                                               ; preds = %38
  %83 = load i32, i32* %7, align 4
  %84 = load i32, i32* %5, align 4
  %85 = sub nsw i32 %83, %84
  %86 = sub nsw i32 %85, 1
  %87 = load i32, i32* %8, align 4
  %88 = load i32, i32* %6, align 4
  %89 = sub nsw i32 %87, %88
  %90 = sub nsw i32 %89, 1
  %91 = mul nsw i32 %86, %90
  store i32 %91, i32* %9, align 4
  %92 = load i32, i32* %9, align 4
  %93 = call i32 (i8*, ...) @printf(i8* getelementptr inbounds ([3 x i8], [3 x i8]* @.str, i64 0, i64 0), i32 %92)
  ret i32 0
}

declare dso_local i32 @__isoc99_scanf(i8*, ...) #1

declare dso_local i32 @printf(i8*, ...) #1


!llvm.module.flags = !{!0}
!llvm.ident = !{!1}

!0 = !{i32 1, !"wchar_size", i32 4}
!1 = !{!"clang version 10.0.0-4ubuntu1 "}
